; ModuleID = 'bench/openssl/original/aes_ecb.ll'
source_filename = "bench/openssl/original/aes_ecb.ll"
target datalayout = "e-m:e-p270:32:32-p271:32:32-p272:64:64-i64:64-i128:128-f80:128-n8:16:32:64-S128"
target triple = "x86_64-pc-linux-gnu"

; Function Attrs: nounwind uwtable
define void @AES_ecb_encrypt(ptr noundef %0, ptr noundef %1, ptr noundef %2, i32 noundef %3) local_unnamed_addr #0 {
  %5 = icmp eq i32 %3, 1
  br i1 %5, label %6, label %7

6:                                                ; preds = %4
  tail call void @AES_encrypt(ptr noundef %0, ptr noundef %1, ptr noundef %2) #2
  br label %8

7:                                                ; preds = %4
  tail call void @AES_decrypt(ptr noundef %0, ptr noundef %1, ptr noundef %2) #2
  br label %8

8:                                                ; preds = %7, %6
  ret void
}

declare void @AES_encrypt(ptr noundef, ptr noundef, ptr noundef) local_unnamed_addr #1

declare void @AES_decrypt(ptr noundef, ptr noundef, ptr noundef) local_unnamed_addr #1


!llvm.module.flags = !{!0, !1, !2}

!0 = !{i32 1, !"wchar_size", i32 4}
!1 = !{i32 8, !"PIC Level", i32 2}
!2 = !{i32 7, !"uwtable", i32 2}
